target datalayout = "e-m:e-p270:32:32-p271:32:32-p272:64:64-i64:64-i128:128-f80:128-n8:16:32:64-S128"
target triple = "x86_64-pc-linux-gnu"

%struct.custom_opt_s = type { i32, %union.anon.5 }
%union.anon.5 = type { %struct.nflx_custom_opt_data }
%struct.nflx_custom_opt_data = type { i32, i64, ptr, i32 }
%struct.generic_custom_opt_data = type { i64, ptr }
%struct.pcapng_option_header = type { i16, i16 }
%struct.write_options_t = type { ptr, ptr, ptr }

; Function Attrs: nounwind uwtable
define internal i32 @pcapng_write_custom_option(ptr noundef %0, i32 noundef %1, ptr noundef %2, ptr noundef %3) #0 {
  %5 = alloca i32, align 4
  %6 = alloca ptr, align 8
  %7 = alloca i32, align 4
  %8 = alloca ptr, align 8
  %9 = alloca ptr, align 8
  %10 = alloca %struct.pcapng_option_header, align 2
  %11 = alloca i64, align 8
  %12 = alloca i64, align 8
  %13 = alloca i32, align 4
  %14 = alloca i32, align 4
  %15 = alloca i32, align 4
  %16 = alloca i32, align 4
  store ptr %0, ptr %6, align 8
  store i32 %1, ptr %7, align 4
  store ptr %2, ptr %8, align 8
  store ptr %3, ptr %9, align 8
  store i32 0, ptr %13, align 4
  %17 = load i32, ptr %7, align 4
  %18 = icmp eq i32 %17, 19372
  br i1 %18, label %22, label %19

19:                                               ; preds = %4
  %20 = load i32, ptr %7, align 4
  %21 = icmp eq i32 %20, 19373
  br i1 %21, label %22, label %23

22:                                               ; preds = %19, %4
  store i32 1, ptr %5, align 4
  br label %156

23:                                               ; preds = %19
  br label %24

24:                                               ; preds = %23
  br label %25

25:                                               ; preds = %24
  %26 = load ptr, ptr %8, align 8
  %27 = getelementptr inbounds %struct.custom_opt_s, ptr %26, i32 0, i32 0
  %28 = load i32, ptr %27, align 8
  switch i32 %28, label %39 [
    i32 10949, label %29
  ]

29:                                               ; preds = %25
  %30 = load ptr, ptr %8, align 8
  %31 = getelementptr inbounds %struct.custom_opt_s, ptr %30, i32 0, i32 1
  %32 = getelementptr inbounds %struct.nflx_custom_opt_data, ptr %31, i32 0, i32 1
  %33 = load i64, ptr %32, align 8
  %34 = add i64 8, %33
  store i64 %34, ptr %12, align 8
  %35 = load ptr, ptr %8, align 8
  %36 = getelementptr inbounds %struct.custom_opt_s, ptr %35, i32 0, i32 1
  %37 = getelementptr inbounds %struct.nflx_custom_opt_data, ptr %36, i32 0, i32 3
  %38 = load i32, ptr %37, align 8
  store i32 %38, ptr %16, align 4
  br label %45

39:                                               ; preds = %25
  %40 = load ptr, ptr %8, align 8
  %41 = getelementptr inbounds %struct.custom_opt_s, ptr %40, i32 0, i32 1
  %42 = getelementptr inbounds %struct.generic_custom_opt_data, ptr %41, i32 0, i32 0
  %43 = load i64, ptr %42, align 8
  %44 = add i64 4, %43
  store i64 %44, ptr %12, align 8
  store i32 0, ptr %16, align 4
  br label %45

45:                                               ; preds = %39, %29
  br label %46

46:                                               ; preds = %45
  br label %47

47:                                               ; preds = %46
  %48 = load i64, ptr %12, align 8
  %49 = icmp ugt i64 %48, 65535
  br i1 %49, label %50, label %51

50:                                               ; preds = %47
  store i32 1, ptr %5, align 4
  br label %156

51:                                               ; preds = %47
  %52 = load i32, ptr %7, align 4
  %53 = trunc i32 %52 to i16
  %54 = getelementptr inbounds %struct.pcapng_option_header, ptr %10, i32 0, i32 0
  store i16 %53, ptr %54, align 2
  %55 = load i64, ptr %12, align 8
  %56 = trunc i64 %55 to i16
  %57 = getelementptr inbounds %struct.pcapng_option_header, ptr %10, i32 0, i32 1
  store i16 %56, ptr %57, align 2
  %58 = load i32, ptr %16, align 4
  %59 = icmp ne i32 %58, 0
  br i1 %59, label %60, label %67

60:                                               ; preds = %51
  %61 = getelementptr inbounds %struct.pcapng_option_header, ptr %10, i32 0, i32 0
  %62 = load i16, ptr %61, align 2
  %63 = getelementptr inbounds %struct.pcapng_option_header, ptr %10, i32 0, i32 0
  store i16 %62, ptr %63, align 2
  %64 = getelementptr inbounds %struct.pcapng_option_header, ptr %10, i32 0, i32 1
  %65 = load i16, ptr %64, align 2
  %66 = getelementptr inbounds %struct.pcapng_option_header, ptr %10, i32 0, i32 1
  store i16 %65, ptr %66, align 2
  br label %67

67:                                               ; preds = %60, %51
  %68 = load ptr, ptr %6, align 8
  %69 = load ptr, ptr %9, align 8
  %70 = call i32 @wtap_dump_file_write(ptr noundef %68, ptr noundef %10, i64 noundef 4, ptr noundef %69)
  %71 = icmp ne i32 %70, 0
  br i1 %71, label %73, label %72

72:                                               ; preds = %67
  store i32 0, ptr %5, align 4
  br label %156

73:                                               ; preds = %67
  %74 = load ptr, ptr %8, align 8
  %75 = getelementptr inbounds %struct.custom_opt_s, ptr %74, i32 0, i32 0
  %76 = load i32, ptr %75, align 8
  store i32 %76, ptr %14, align 4
  %77 = load i32, ptr %16, align 4
  %78 = icmp ne i32 %77, 0
  br i1 %78, label %79, label %81

79:                                               ; preds = %73
  %80 = load i32, ptr %14, align 4
  store i32 %80, ptr %14, align 4
  br label %81

81:                                               ; preds = %79, %73
  %82 = load ptr, ptr %6, align 8
  %83 = load ptr, ptr %9, align 8
  %84 = call i32 @wtap_dump_file_write(ptr noundef %82, ptr noundef %14, i64 noundef 4, ptr noundef %83)
  %85 = icmp ne i32 %84, 0
  br i1 %85, label %87, label %86

86:                                               ; preds = %81
  store i32 0, ptr %5, align 4
  br label %156

87:                                               ; preds = %81
  %88 = load ptr, ptr %8, align 8
  %89 = getelementptr inbounds %struct.custom_opt_s, ptr %88, i32 0, i32 0
  %90 = load i32, ptr %89, align 8
  switch i32 %90, label %118 [
    i32 10949, label %91
  ]

91:                                               ; preds = %87
  %92 = load ptr, ptr %8, align 8
  %93 = getelementptr inbounds %struct.custom_opt_s, ptr %92, i32 0, i32 1
  %94 = getelementptr inbounds %struct.nflx_custom_opt_data, ptr %93, i32 0, i32 0
  %95 = load i32, ptr %94, align 8
  store i32 %95, ptr %15, align 4
  br label %96

96:                                               ; preds = %91
  br label %97

97:                                               ; preds = %96
  %98 = load ptr, ptr %6, align 8
  %99 = load ptr, ptr %9, align 8
  %100 = call i32 @wtap_dump_file_write(ptr noundef %98, ptr noundef %15, i64 noundef 4, ptr noundef %99)
  %101 = icmp ne i32 %100, 0
  br i1 %101, label %103, label %102

102:                                              ; preds = %97
  store i32 0, ptr %5, align 4
  br label %156

103:                                              ; preds = %97
  %104 = load ptr, ptr %6, align 8
  %105 = load ptr, ptr %8, align 8
  %106 = getelementptr inbounds %struct.custom_opt_s, ptr %105, i32 0, i32 1
  %107 = getelementptr inbounds %struct.nflx_custom_opt_data, ptr %106, i32 0, i32 2
  %108 = load ptr, ptr %107, align 8
  %109 = load ptr, ptr %8, align 8
  %110 = getelementptr inbounds %struct.custom_opt_s, ptr %109, i32 0, i32 1
  %111 = getelementptr inbounds %struct.nflx_custom_opt_data, ptr %110, i32 0, i32 1
  %112 = load i64, ptr %111, align 8
  %113 = load ptr, ptr %9, align 8
  %114 = call i32 @wtap_dump_file_write(ptr noundef %104, ptr noundef %108, i64 noundef %112, ptr noundef %113)
  %115 = icmp ne i32 %114, 0
  br i1 %115, label %117, label %116

116:                                              ; preds = %103
  store i32 0, ptr %5, align 4
  br label %156

117:                                              ; preds = %103
  br label %133

118:                                              ; preds = %87
  %119 = load ptr, ptr %6, align 8
  %120 = load ptr, ptr %8, align 8
  %121 = getelementptr inbounds %struct.custom_opt_s, ptr %120, i32 0, i32 1
  %122 = getelementptr inbounds %struct.generic_custom_opt_data, ptr %121, i32 0, i32 1
  %123 = load ptr, ptr %122, align 8
  %124 = load ptr, ptr %8, align 8
  %125 = getelementptr inbounds %struct.custom_opt_s, ptr %124, i32 0, i32 1
  %126 = getelementptr inbounds %struct.generic_custom_opt_data, ptr %125, i32 0, i32 0
  %127 = load i64, ptr %126, align 8
  %128 = load ptr, ptr %9, align 8
  %129 = call i32 @wtap_dump_file_write(ptr noundef %119, ptr noundef %123, i64 noundef %127, ptr noundef %128)
  %130 = icmp ne i32 %129, 0
  br i1 %130, label %132, label %131

131:                                              ; preds = %118
  store i32 0, ptr %5, align 4
  br label %156

132:                                              ; preds = %118
  br label %133

133:                                              ; preds = %132, %117
  %134 = load i64, ptr %12, align 8
  %135 = urem i64 %134, 4
  %136 = icmp ne i64 %135, 0
  br i1 %136, label %137, label %141

137:                                              ; preds = %133
  %138 = load i64, ptr %12, align 8
  %139 = urem i64 %138, 4
  %140 = sub i64 4, %139
  store i64 %140, ptr %11, align 8
  br label %142

141:                                              ; preds = %133
  store i64 0, ptr %11, align 8
  br label %142

142:                                              ; preds = %141, %137
  %143 = load i64, ptr %11, align 8
  %144 = icmp ne i64 %143, 0
  br i1 %144, label %145, label %153

145:                                              ; preds = %142
  %146 = load ptr, ptr %6, align 8
  %147 = load i64, ptr %11, align 8
  %148 = load ptr, ptr %9, align 8
  %149 = call i32 @wtap_dump_file_write(ptr noundef %146, ptr noundef %13, i64 noundef %147, ptr noundef %148)
  %150 = icmp ne i32 %149, 0
  br i1 %150, label %152, label %151

151:                                              ; preds = %145
  store i32 0, ptr %5, align 4
  br label %156

152:                                              ; preds = %145
  br label %153

153:                                              ; preds = %152, %142
  br label %154

154:                                              ; preds = %153
  br label %155

155:                                              ; preds = %154
  store i32 1, ptr %5, align 4
  br label %156

156:                                              ; preds = %155, %151, %131, %116, %102, %86, %72, %50, %22
  %157 = load i32, ptr %5, align 4
  ret i32 %157
}

; Function Attrs: nounwind uwtable
define internal i32 @pcapng_write_string_option(ptr noundef %0, i32 noundef %1, ptr noundef %2, ptr noundef %3) #0 {
  %5 = alloca i32, align 4
  %6 = alloca ptr, align 8
  %7 = alloca i32, align 4
  %8 = alloca ptr, align 8
  %9 = alloca ptr, align 8
  %10 = alloca %struct.pcapng_option_header, align 2
  %11 = alloca i64, align 8
  %12 = alloca i32, align 4
  %13 = alloca i32, align 4
  store ptr %0, ptr %6, align 8
  store i32 %1, ptr %7, align 4
  store ptr %2, ptr %8, align 8
  store ptr %3, ptr %9, align 8
  %14 = load ptr, ptr %8, align 8
  %15 = load ptr, ptr %14, align 8
  %16 = call i64 @strlen(ptr noundef %15) #12
  store i64 %16, ptr %11, align 8
  store i32 0, ptr %12, align 4
  %17 = load i64, ptr %11, align 8
  %18 = icmp eq i64 %17, 0
  br i1 %18, label %19, label %20

19:                                               ; preds = %4
  store i32 1, ptr %5, align 4
  br label %68

20:                                               ; preds = %4
  %21 = load i64, ptr %11, align 8
  %22 = icmp ugt i64 %21, 65535
  br i1 %22, label %23, label %24

23:                                               ; preds = %20
  store i32 1, ptr %5, align 4
  br label %68

24:                                               ; preds = %20
  %25 = load i32, ptr %7, align 4
  %26 = trunc i32 %25 to i16
  %27 = getelementptr inbounds %struct.pcapng_option_header, ptr %10, i32 0, i32 0
  store i16 %26, ptr %27, align 2
  %28 = load i64, ptr %11, align 8
  %29 = trunc i64 %28 to i16
  %30 = getelementptr inbounds %struct.pcapng_option_header, ptr %10, i32 0, i32 1
  store i16 %29, ptr %30, align 2
  %31 = load ptr, ptr %6, align 8
  %32 = load ptr, ptr %9, align 8
  %33 = call i32 @wtap_dump_file_write(ptr noundef %31, ptr noundef %10, i64 noundef 4, ptr noundef %32)
  %34 = icmp ne i32 %33, 0
  br i1 %34, label %36, label %35

35:                                               ; preds = %24
  store i32 0, ptr %5, align 4
  br label %68

36:                                               ; preds = %24
  %37 = load ptr, ptr %6, align 8
  %38 = load ptr, ptr %8, align 8
  %39 = load ptr, ptr %38, align 8
  %40 = load i64, ptr %11, align 8
  %41 = load ptr, ptr %9, align 8
  %42 = call i32 @wtap_dump_file_write(ptr noundef %37, ptr noundef %39, i64 noundef %40, ptr noundef %41)
  %43 = icmp ne i32 %42, 0
  br i1 %43, label %45, label %44

44:                                               ; preds = %36
  store i32 0, ptr %5, align 4
  br label %68

45:                                               ; preds = %36
  %46 = load i64, ptr %11, align 8
  %47 = urem i64 %46, 4
  %48 = icmp ne i64 %47, 0
  br i1 %48, label %49, label %54

49:                                               ; preds = %45
  %50 = load i64, ptr %11, align 8
  %51 = urem i64 %50, 4
  %52 = sub i64 4, %51
  %53 = trunc i64 %52 to i32
  store i32 %53, ptr %13, align 4
  br label %55

54:                                               ; preds = %45
  store i32 0, ptr %13, align 4
  br label %55

55:                                               ; preds = %54, %49
  %56 = load i32, ptr %13, align 4
  %57 = icmp ne i32 %56, 0
  br i1 %57, label %58, label %67

58:                                               ; preds = %55
  %59 = load ptr, ptr %6, align 8
  %60 = load i32, ptr %13, align 4
  %61 = zext i32 %60 to i64
  %62 = load ptr, ptr %9, align 8
  %63 = call i32 @wtap_dump_file_write(ptr noundef %59, ptr noundef %12, i64 noundef %61, ptr noundef %62)
  %64 = icmp ne i32 %63, 0
  br i1 %64, label %66, label %65

65:                                               ; preds = %58
  store i32 0, ptr %5, align 4
  br label %68

66:                                               ; preds = %58
  br label %67

67:                                               ; preds = %66, %55
  store i32 1, ptr %5, align 4
  br label %68

68:                                               ; preds = %67, %65, %44, %35, %23, %19
  %69 = load i32, ptr %5, align 4
  ret i32 %69
}

; Function Attrs: nounwind uwtable
define internal i32 @write_block_option(ptr noundef %0, i32 noundef %1, i32 noundef %2, ptr noundef %3, ptr noundef %4) #0 {
  %6 = alloca i32, align 4
  %7 = alloca ptr, align 8
  %8 = alloca i32, align 4
  %9 = alloca i32, align 4
  %10 = alloca ptr, align 8
  %11 = alloca ptr, align 8
  %12 = alloca ptr, align 8
  store ptr %0, ptr %7, align 8
  store i32 %1, ptr %8, align 4
  store i32 %2, ptr %9, align 4
  store ptr %3, ptr %10, align 8
  store ptr %4, ptr %11, align 8
  %13 = load ptr, ptr %11, align 8
  store ptr %13, ptr %12, align 8
  %14 = load i32, ptr %8, align 4
  switch i32 %14, label %42 [
    i32 1, label %15
    i32 2988, label %28
    i32 2989, label %28
    i32 19372, label %41
    i32 19373, label %41
  ]

15:                                               ; preds = %5
  %16 = load ptr, ptr %12, align 8
  %17 = getelementptr inbounds %struct.write_options_t, ptr %16, i32 0, i32 0
  %18 = load ptr, ptr %17, align 8
  %19 = load i32, ptr %8, align 4
  %20 = load ptr, ptr %10, align 8
  %21 = load ptr, ptr %12, align 8
  %22 = getelementptr inbounds %struct.write_options_t, ptr %21, i32 0, i32 1
  %23 = load ptr, ptr %22, align 8
  %24 = call i32 @pcapng_write_string_option(ptr noundef %18, i32 noundef %19, ptr noundef %20, ptr noundef %23)
  %25 = icmp ne i32 %24, 0
  br i1 %25, label %27, label %26

26:                                               ; preds = %15
  store i32 0, ptr %6, align 4
  br label %66

27:                                               ; preds = %15
  br label %65

28:                                               ; preds = %5, %5
  %29 = load ptr, ptr %12, align 8
  %30 = getelementptr inbounds %struct.write_options_t, ptr %29, i32 0, i32 0
  %31 = load ptr, ptr %30, align 8
  %32 = load i32, ptr %8, align 4
  %33 = load ptr, ptr %10, align 8
  %34 = load ptr, ptr %12, align 8
  %35 = getelementptr inbounds %struct.write_options_t, ptr %34, i32 0, i32 1
  %36 = load ptr, ptr %35, align 8
  %37 = call i32 @pcapng_write_custom_option(ptr noundef %31, i32 noundef %32, ptr noundef %33, ptr noundef %36)
  %38 = icmp ne i32 %37, 0
  br i1 %38, label %40, label %39

39:                                               ; preds = %28
  store i32 0, ptr %6, align 4
  br label %66

40:                                               ; preds = %28
  br label %65

41:                                               ; preds = %5, %5
  br label %65

42:                                               ; preds = %5
  %43 = load ptr, ptr %12, align 8
  %44 = getelementptr inbounds %struct.write_options_t, ptr %43, i32 0, i32 2
  %45 = load ptr, ptr %44, align 8
  %46 = icmp ne ptr %45, null
  br i1 %46, label %47, label %64

47:                                               ; preds = %42
  %48 = load ptr, ptr %12, align 8
  %49 = getelementptr inbounds %struct.write_options_t, ptr %48, i32 0, i32 2
  %50 = load ptr, ptr %49, align 8
  %51 = load ptr, ptr %12, align 8
  %52 = getelementptr inbounds %struct.write_options_t, ptr %51, i32 0, i32 0
  %53 = load ptr, ptr %52, align 8
  %54 = load ptr, ptr %7, align 8
  %55 = load i32, ptr %8, align 4
  %56 = load i32, ptr %9, align 4
  %57 = load ptr, ptr %10, align 8
  %58 = load ptr, ptr %12, align 8
  %59 = getelementptr inbounds %struct.write_options_t, ptr %58, i32 0, i32 1
  %60 = load ptr, ptr %59, align 8
  %61 = call i32 %50(ptr noundef %53, ptr noundef %54, i32 noundef %55, i32 noundef %56, ptr noundef %57, ptr noundef %60)
  %62 = icmp ne i32 %61, 0
  br i1 %62, label %64, label %63

63:                                               ; preds = %47
  store i32 0, ptr %6, align 4
  br label %66

64:                                               ; preds = %47, %42
  br label %65

65:                                               ; preds = %64, %41, %40, %27
  store i32 1, ptr %6, align 4
  br label %66

66:                                               ; preds = %65, %63, %39, %26
  %67 = load i32, ptr %6, align 4
  ret i32 %67
}