; Function Attrs: nounwind uwtable
define internal range(i32 0, 2) i32 @write_block_option(ptr noundef %0, i32 noundef %1, i32 noundef %2, ptr noundef %3, ptr noundef readonly captures(none) %4) #0 {
  %6 = alloca %struct.pcapng_option_header, align 2
  %7 = alloca i32, align 4
  %8 = alloca i32, align 4
  %9 = alloca i32, align 4
  %10 = alloca %struct.pcapng_option_header, align 2
  %11 = alloca i32, align 4
  switch i32 %1, label %70 [
    i32 1, label %12
    i32 2988, label %31
    i32 2989, label %31
    i32 19372, label %78
    i32 19373, label %78
  ]

12:                                               ; preds = %5
  %13 = load ptr, ptr %4, align 8
  %14 = getelementptr inbounds nuw i8, ptr %4, i64 8
  %15 = load ptr, ptr %14, align 8
  call void @llvm.lifetime.start.p0(i64 4, ptr nonnull %10)
  call void @llvm.lifetime.start.p0(i64 4, ptr nonnull %11)
  %16 = load ptr, ptr %3, align 8
  %17 = tail call i64 @strlen(ptr noundef nonnull dereferenceable(1) %16) #19
  store i32 0, ptr %11, align 4
  %18 = add i64 %17, -65536
  %or.cond.i = icmp ult i64 %18, -65535
  br i1 %or.cond.i, label %pcapng_write_string_option.exit, label %19

19:                                               ; preds = %12
  store i16 1, ptr %10, align 2
  %20 = trunc nuw i64 %17 to i16
  %21 = getelementptr inbounds nuw i8, ptr %10, i64 2
  store i16 %20, ptr %21, align 2
  %22 = call i32 @wtap_dump_file_write(ptr noundef %13, ptr noundef nonnull %10, i64 noundef 4, ptr noundef %15) #16
  %.not.i = icmp eq i32 %22, 0
  br i1 %.not.i, label %pcapng_write_string_option.exit.thread, label %23

23:                                               ; preds = %19
  %24 = load ptr, ptr %3, align 8
  %25 = call i32 @wtap_dump_file_write(ptr noundef %13, ptr noundef %24, i64 noundef %17, ptr noundef %15) #16
  %.not20.i = icmp eq i32 %25, 0
  br i1 %.not20.i, label %pcapng_write_string_option.exit.thread, label %26

26:                                               ; preds = %23
  %27 = and i64 %17, 3
  %.not21.i = icmp eq i64 %27, 0
  br i1 %.not21.i, label %pcapng_write_string_option.exit, label %28

28:                                               ; preds = %26
  %29 = sub nuw nsw i64 4, %27
  %30 = call i32 @wtap_dump_file_write(ptr noundef %13, ptr noundef nonnull %11, i64 noundef %29, ptr noundef %15) #16
  %.not23.i = icmp eq i32 %30, 0
  br i1 %.not23.i, label %pcapng_write_string_option.exit.thread, label %pcapng_write_string_option.exit

pcapng_write_string_option.exit.thread:           ; preds = %19, %23, %28
  call void @llvm.lifetime.end.p0(i64 4, ptr nonnull %10)
  call void @llvm.lifetime.end.p0(i64 4, ptr nonnull %11)
  br label %79

pcapng_write_string_option.exit:                  ; preds = %26, %28, %12
  call void @llvm.lifetime.end.p0(i64 4, ptr nonnull %10)
  call void @llvm.lifetime.end.p0(i64 4, ptr nonnull %11)
  br label %78

31:                                               ; preds = %5, %5
  %32 = load ptr, ptr %4, align 8
  %33 = getelementptr inbounds nuw i8, ptr %4, i64 8
  %34 = load ptr, ptr %33, align 8
  call void @llvm.lifetime.start.p0(i64 4, ptr nonnull %6)
  call void @llvm.lifetime.start.p0(i64 4, ptr nonnull %7)
  call void @llvm.lifetime.start.p0(i64 4, ptr nonnull %8)
  call void @llvm.lifetime.start.p0(i64 4, ptr nonnull %9)
  store i32 0, ptr %7, align 4
  %35 = load i32, ptr %3, align 8
  %cond.i = icmp eq i32 %35, 10949
  %..i = select i1 %cond.i, i64 16, i64 8
  %.50.i = select i1 %cond.i, i64 8, i64 4
  %36 = getelementptr inbounds nuw i8, ptr %3, i64 %..i
  %37 = load i64, ptr %36, align 8
  %38 = add i64 %.50.i, %37
  %39 = icmp ugt i64 %38, 65535
  br i1 %39, label %pcapng_write_custom_option.exit, label %40

40:                                               ; preds = %31
  %41 = trunc i32 %1 to i16
  store i16 %41, ptr %6, align 2
  %42 = trunc nuw i64 %38 to i16
  %43 = getelementptr inbounds nuw i8, ptr %6, i64 2
  store i16 %42, ptr %43, align 2
  %44 = call i32 @wtap_dump_file_write(ptr noundef %32, ptr noundef nonnull %6, i64 noundef 4, ptr noundef %34) #16
  %.not.i24 = icmp eq i32 %44, 0
  br i1 %.not.i24, label %pcapng_write_custom_option.exit.thread, label %45

45:                                               ; preds = %40
  %46 = load i32, ptr %3, align 8
  store i32 %46, ptr %8, align 4
  %47 = call i32 @wtap_dump_file_write(ptr noundef %32, ptr noundef nonnull %8, i64 noundef 4, ptr noundef %34) #16
  %.not41.i = icmp eq i32 %47, 0
  br i1 %.not41.i, label %pcapng_write_custom_option.exit.thread, label %48

48:                                               ; preds = %45
  %49 = load i32, ptr %3, align 8
  %cond1.i = icmp eq i32 %49, 10949
  %50 = getelementptr inbounds nuw i8, ptr %3, i64 8
  br i1 %cond1.i, label %51, label %60

51:                                               ; preds = %48
  %52 = load i32, ptr %50, align 8
  store i32 %52, ptr %9, align 4
  %53 = call i32 @wtap_dump_file_write(ptr noundef %32, ptr noundef nonnull %9, i64 noundef 4, ptr noundef %34) #16
  %.not43.i = icmp eq i32 %53, 0
  br i1 %.not43.i, label %pcapng_write_custom_option.exit.thread, label %54

54:                                               ; preds = %51
  %55 = getelementptr inbounds nuw i8, ptr %3, i64 24
  %56 = load ptr, ptr %55, align 8
  %57 = getelementptr inbounds nuw i8, ptr %3, i64 16
  %58 = load i64, ptr %57, align 8
  %59 = call i32 @wtap_dump_file_write(ptr noundef %32, ptr noundef %56, i64 noundef %58, ptr noundef %34) #16
  %.not44.i = icmp eq i32 %59, 0
  br i1 %.not44.i, label %pcapng_write_custom_option.exit.thread, label %65

60:                                               ; preds = %48
  %61 = getelementptr inbounds nuw i8, ptr %3, i64 16
  %62 = load ptr, ptr %61, align 8
  %63 = load i64, ptr %50, align 8
  %64 = call i32 @wtap_dump_file_write(ptr noundef %32, ptr noundef %62, i64 noundef %63, ptr noundef %34) #16
  %.not42.i = icmp eq i32 %64, 0
  br i1 %.not42.i, label %pcapng_write_custom_option.exit.thread, label %65

65:                                               ; preds = %60, %54
  %66 = and i64 %37, 3
  %.not45.i = icmp eq i64 %66, 0
  br i1 %.not45.i, label %pcapng_write_custom_option.exit, label %67

67:                                               ; preds = %65
  %68 = sub nuw nsw i64 4, %66
  %69 = call i32 @wtap_dump_file_write(ptr noundef %32, ptr noundef nonnull %7, i64 noundef %68, ptr noundef %34) #16
  %.not47.i = icmp eq i32 %69, 0
  br i1 %.not47.i, label %pcapng_write_custom_option.exit.thread, label %pcapng_write_custom_option.exit

pcapng_write_custom_option.exit.thread:           ; preds = %40, %45, %51, %54, %60, %67
  call void @llvm.lifetime.end.p0(i64 4, ptr nonnull %6)
  call void @llvm.lifetime.end.p0(i64 4, ptr nonnull %7)
  call void @llvm.lifetime.end.p0(i64 4, ptr nonnull %8)
  call void @llvm.lifetime.end.p0(i64 4, ptr nonnull %9)
  br label %79

pcapng_write_custom_option.exit:                  ; preds = %65, %67, %31
  call void @llvm.lifetime.end.p0(i64 4, ptr nonnull %6)
  call void @llvm.lifetime.end.p0(i64 4, ptr nonnull %7)
  call void @llvm.lifetime.end.p0(i64 4, ptr nonnull %8)
  call void @llvm.lifetime.end.p0(i64 4, ptr nonnull %9)
  br label %78

70:                                               ; preds = %5
  %71 = getelementptr inbounds nuw i8, ptr %4, i64 16
  %72 = load ptr, ptr %71, align 8
  %.not21 = icmp eq ptr %72, null
  br i1 %.not21, label %78, label %73

73:                                               ; preds = %70
  %74 = load ptr, ptr %4, align 8
  %75 = getelementptr inbounds nuw i8, ptr %4, i64 8
  %76 = load ptr, ptr %75, align 8
  %77 = tail call i32 %72(ptr noundef %74, ptr noundef %0, i32 noundef %1, i32 noundef %2, ptr noundef %3, ptr noundef %76) #16
  %.not22 = icmp eq i32 %77, 0
  br i1 %.not22, label %79, label %78

78:                                               ; preds = %pcapng_write_custom_option.exit, %pcapng_write_string_option.exit, %70, %73, %5, %5
  br label %79

79:                                               ; preds = %pcapng_write_custom_option.exit.thread, %pcapng_write_string_option.exit.thread, %73, %78
  %.0 = phi i32 [ 1, %78 ], [ 0, %73 ], [ 0, %pcapng_write_string_option.exit.thread ], [ 0, %pcapng_write_custom_option.exit.thread ]
  ret i32 %.0
}